target datalayout = "e-m:e-p270:32:32-p271:32:32-p272:64:64-i64:64-i128:128-f80:128-n8:16:32:64-S128"
target triple = "x86_64-unknown-linux-gnu"

%struct.sdshdr8 = type { i8, i8, i8, [0 x i8] }
%struct.sdshdr16 = type <{ i16, i16, i8, [0 x i8] }>
%struct.sdshdr32 = type <{ i32, i32, i8, [0 x i8] }>
%struct.sdshdr64 = type <{ i64, i64, i8, [0 x i8] }>

; Function Attrs: nounwind uwtable
define internal i64 @sdsavail(ptr noundef %s) #0 {
entry:
  %retval = alloca i64, align 8
  %s.addr = alloca ptr, align 8
  %flags = alloca i8, align 1
  %sh = alloca ptr, align 8
  %sh6 = alloca ptr, align 8
  %sh15 = alloca ptr, align 8
  %sh22 = alloca ptr, align 8
  store ptr %s, ptr %s.addr, align 8
  %0 = load ptr, ptr %s.addr, align 8
  %arrayidx = getelementptr inbounds i8, ptr %0, i64 -1
  %1 = load i8, ptr %arrayidx, align 1
  store i8 %1, ptr %flags, align 1
  %2 = load i8, ptr %flags, align 1
  %conv = zext i8 %2 to i32
  %and = and i32 %conv, 7
  switch i32 %and, label %sw.epilog [
    i32 0, label %sw.bb
    i32 1, label %sw.bb1
    i32 2, label %sw.bb5
    i32 3, label %sw.bb14
    i32 4, label %sw.bb21
  ]

sw.bb:                                            ; preds = %entry
  store i64 0, ptr %retval, align 8
  br label %return

sw.bb1:                                           ; preds = %entry
  %3 = load ptr, ptr %s.addr, align 8
  %add.ptr = getelementptr inbounds i8, ptr %3, i64 -3
  store ptr %add.ptr, ptr %sh, align 8
  %4 = load ptr, ptr %sh, align 8
  %alloc = getelementptr inbounds %struct.sdshdr8, ptr %4, i32 0, i32 1
  %5 = load i8, ptr %alloc, align 1
  %conv2 = zext i8 %5 to i32
  %6 = load ptr, ptr %sh, align 8
  %len = getelementptr inbounds %struct.sdshdr8, ptr %6, i32 0, i32 0
  %7 = load i8, ptr %len, align 1
  %conv3 = zext i8 %7 to i32
  %sub = sub nsw i32 %conv2, %conv3
  %conv4 = sext i32 %sub to i64
  store i64 %conv4, ptr %retval, align 8
  br label %return

sw.bb5:                                           ; preds = %entry
  %8 = load ptr, ptr %s.addr, align 8
  %add.ptr7 = getelementptr inbounds i8, ptr %8, i64 -5
  store ptr %add.ptr7, ptr %sh6, align 8
  %9 = load ptr, ptr %sh6, align 8
  %alloc8 = getelementptr inbounds %struct.sdshdr16, ptr %9, i32 0, i32 1
  %10 = load i16, ptr %alloc8, align 1
  %conv9 = zext i16 %10 to i32
  %11 = load ptr, ptr %sh6, align 8
  %len10 = getelementptr inbounds %struct.sdshdr16, ptr %11, i32 0, i32 0
  %12 = load i16, ptr %len10, align 1
  %conv11 = zext i16 %12 to i32
  %sub12 = sub nsw i32 %conv9, %conv11
  %conv13 = sext i32 %sub12 to i64
  store i64 %conv13, ptr %retval, align 8
  br label %return

sw.bb14:                                          ; preds = %entry
  %13 = load ptr, ptr %s.addr, align 8
  %add.ptr16 = getelementptr inbounds i8, ptr %13, i64 -9
  store ptr %add.ptr16, ptr %sh15, align 8
  %14 = load ptr, ptr %sh15, align 8
  %alloc17 = getelementptr inbounds %struct.sdshdr32, ptr %14, i32 0, i32 1
  %15 = load i32, ptr %alloc17, align 1
  %16 = load ptr, ptr %sh15, align 8
  %len18 = getelementptr inbounds %struct.sdshdr32, ptr %16, i32 0, i32 0
  %17 = load i32, ptr %len18, align 1
  %sub19 = sub i32 %15, %17
  %conv20 = zext i32 %sub19 to i64
  store i64 %conv20, ptr %retval, align 8
  br label %return

sw.bb21:                                          ; preds = %entry
  %18 = load ptr, ptr %s.addr, align 8
  %add.ptr23 = getelementptr inbounds i8, ptr %18, i64 -17
  store ptr %add.ptr23, ptr %sh22, align 8
  %19 = load ptr, ptr %sh22, align 8
  %alloc24 = getelementptr inbounds %struct.sdshdr64, ptr %19, i32 0, i32 1
  %20 = load i64, ptr %alloc24, align 1
  %21 = load ptr, ptr %sh22, align 8
  %len25 = getelementptr inbounds %struct.sdshdr64, ptr %21, i32 0, i32 0
  %22 = load i64, ptr %len25, align 1
  %sub26 = sub i64 %20, %22
  store i64 %sub26, ptr %retval, align 8
  br label %return

sw.epilog:                                        ; preds = %entry
  store i64 0, ptr %retval, align 8
  br label %return

return:                                           ; preds = %sw.epilog, %sw.bb21, %sw.bb14, %sw.bb5, %sw.bb1, %sw.bb
  %23 = load i64, ptr %retval, align 8
  ret i64 %23
}