; Function Attrs: mustprogress nofree norecurse nosync nounwind willreturn memory(argmem: read) uwtable
define internal fastcc i64 @sdsavail(ptr nocapture noundef readonly %s) unnamed_addr #2 {
entry:
  %arrayidx = getelementptr inbounds i8, ptr %s, i64 -1
  %0 = load i8, ptr %arrayidx, align 1
  %1 = and i8 %0, 7
  switch i8 %1, label %return [
    i8 4, label %sw.bb21
    i8 1, label %sw.bb1
    i8 2, label %sw.bb5
    i8 3, label %sw.bb14
  ]

sw.bb1:                                           ; preds = %entry
  %add.ptr = getelementptr inbounds i8, ptr %s, i64 -3
  %alloc = getelementptr inbounds i8, ptr %s, i64 -2
  %2 = load i8, ptr %alloc, align 1
  %conv2 = zext i8 %2 to i64
  %3 = load i8, ptr %add.ptr, align 1
  %conv3 = zext i8 %3 to i64
  %sub = sub nsw i64 %conv2, %conv3
  br label %return

sw.bb5:                                           ; preds = %entry
  %add.ptr7 = getelementptr inbounds i8, ptr %s, i64 -5
  %alloc8 = getelementptr inbounds i8, ptr %s, i64 -3
  %4 = load i16, ptr %alloc8, align 1
  %conv9 = zext i16 %4 to i64
  %5 = load i16, ptr %add.ptr7, align 1
  %conv11 = zext i16 %5 to i64
  %sub12 = sub nsw i64 %conv9, %conv11
  br label %return

sw.bb14:                                          ; preds = %entry
  %add.ptr16 = getelementptr inbounds i8, ptr %s, i64 -9
  %alloc17 = getelementptr inbounds i8, ptr %s, i64 -5
  %6 = load i32, ptr %alloc17, align 1
  %7 = load i32, ptr %add.ptr16, align 1
  %sub19 = sub i32 %6, %7
  %conv20 = zext i32 %sub19 to i64
  br label %return

sw.bb21:                                          ; preds = %entry
  %add.ptr23 = getelementptr inbounds i8, ptr %s, i64 -17
  %alloc24 = getelementptr inbounds i8, ptr %s, i64 -9
  %8 = load i64, ptr %alloc24, align 1
  %9 = load i64, ptr %add.ptr23, align 1
  %sub26 = sub i64 %8, %9
  br label %return

return:                                           ; preds = %entry, %sw.bb21, %sw.bb14, %sw.bb5, %sw.bb1
  %retval.0 = phi i64 [ %sub26, %sw.bb21 ], [ %conv20, %sw.bb14 ], [ %sub12, %sw.bb5 ], [ %sub, %sw.bb1 ], [ 0, %entry ]
  ret i64 %retval.0
}